Certificate:
    Data:
        Version: 3 (0x2)
        Serial Number: 4096 (0x1000)
    Signature Algorithm: sha1WithRSAEncryption
        Issuer: C=US, ST=NY, L=Syracuse, O=SU, OU=SU/emailAddress=kying@sy.edu
        Validity
            Not Before: Mar 26 00:27:57 2015 GMT
            Not After : Mar 25 00:27:57 2016 GMT
        Subject: C=US, ST=NY, L=Syracuse, O=SU, OU=Su, CN=PKILabServer.com/emailAddress=kying@syr.edu
        Subject Public Key Info:
            Public Key Algorithm: rsaEncryption
                Public-Key: (1024 bit)
                Modulus:
                    00:a9:b4:e4:35:c9:24:45:08:9b:1c:38:32:a7:45:
                    c5:b9:47:5b:89:ba:50:85:8a:be:21:88:f6:ca:f1:
                    d9:97:0e:ff:c2:9c:71:32:be:37:8c:6b:96:26:07:
                    3a:e4:b3:af:ee:6f:67:77:ea:97:d8:e2:f5:97:7e:
                    c1:7a:42:de:61:a1:cf:cf:ce:67:b2:0a:37:7e:4c:
                    21:49:cf:97:a9:96:28:82:d0:49:7a:16:ec:12:17:
                    86:4e:86:80:4b:1b:16:e7:86:46:bc:b4:0d:f1:4c:
                    e1:d7:df:0c:ad:fa:0e:eb:1a:16:92:cf:f8:cd:53:
                    19:f6:24:b0:cf:a3:5d:a9:41
                Exponent: 65537 (0x10001)
        X509v3 extensions:
            X509v3 Basic Constraints: 
                CA:FALSE
            Netscape Comment: 
                OpenSSL Generated Certificate
            X509v3 Subject Key Identifier: 
                80:FC:30:97:4F:04:80:11:A5:71:42:8B:B4:4A:56:FE:34:C4:FF:73
            X509v3 Authority Key Identifier: 
                keyid:CA:AF:20:EB:17:FD:D7:A7:EC:C3:39:D1:14:2C:A4:91:34:97:84:29

    Signature Algorithm: sha1WithRSAEncryption
         25:d1:40:7b:e9:44:7a:a5:cb:fa:a6:1a:5d:96:48:36:ea:e8:
         9d:d7:da:d8:44:1f:bb:d6:a2:9b:1b:13:29:cb:69:7d:1f:63:
         45:f8:7f:2e:a3:a6:76:7e:26:c8:8b:68:92:fc:9e:55:0c:11:
         9f:c3:18:e5:5e:8b:b8:16:12:49:8c:d2:67:a4:a9:8e:9f:92:
         89:d7:4b:0b:b5:5b:21:59:01:dc:c3:d2:ef:1c:59:a9:f2:b6:
         23:61:55:b8:df:d2:df:cf:c4:b4:ce:7f:75:b8:24:33:bc:eb:
         fa:41:f5:b1:3c:b7:19:55:2b:00:f4:05:6f:2c:09:0e:7c:1b:
         56:a7
-----BEGIN CERTIFICATE-----
MIIC1zCCAkCgAwIBAgICEAAwDQYJKoZIhvcNAQEFBQAwZDELMAkGA1UEBhMCVVMx
CzAJBgNVBAgMAk5ZMREwDwYDVQQHDAhTeXJhY3VzZTELMAkGA1UECgwCU1UxCzAJ
BgNVBAsMAlNVMRswGQYJKoZIhvcNAQkBFgxreWluZ0BzeS5lZHUwHhcNMTUwMzI2
MDAyNzU3WhcNMTYwMzI1MDAyNzU3WjCBgDELMAkGA1UEBhMCVVMxCzAJBgNVBAgM
Ak5ZMREwDwYDVQQHDAhTeXJhY3VzZTELMAkGA1UECgwCU1UxCzAJBgNVBAsMAlN1
MRkwFwYDVQQDDBBQS0lMYWJTZXJ2ZXIuY29tMRwwGgYJKoZIhvcNAQkBFg1reWlu
Z0BzeXIuZWR1MIGfMA0GCSqGSIb3DQEBAQUAA4GNADCBiQKBgQCptOQ1ySRFCJsc
ODKnRcW5R1uJulCFir4hiPbK8dmXDv/CnHEyvjeMa5YmBzrks6/ub2d36pfY4vWX
fsF6Qt5hoc/PzmeyCjd+TCFJz5epliiC0El6FuwSF4ZOhoBLGxbnhka8tA3xTOHX
3wyt+g7rGhaSz/jNUxn2JLDPo12pQQIDAQABo3sweTAJBgNVHRMEAjAAMCwGCWCG
SAGG+EIBDQQfFh1PcGVuU1NMIEdlbmVyYXRlZCBDZXJ0aWZpY2F0ZTAdBgNVHQ4E
FgQUgPwwl08EgBGlcUKLtEpW/jTE/3MwHwYDVR0jBBgwFoAUyq8g6xf916fswznR
FCykkTSXhCkwDQYJKoZIhvcNAQEFBQADgYEAJdFAe+lEeqXL+qYaXZZINurondfa
2EQfu9aimxsTKctpfR9jRfh/LqOmdn4myItokvyeVQwRn8MY5V6LuBYSSYzSZ6Sp
jp+SiddLC7VbIVkB3MPS7xxZqfK2I2FVuN/S38/EtM5/dbgkM7zr+kH1sTy3GVUr
APQFbywJDnwbVqc=
-----END CERTIFICATE-----
