Certificate:
    Data:
        Version: 3 (0x2)
        Serial Number: 4098 (0x1002)
    Signature Algorithm: sha256WithRSAEncryption
        Issuer: C=US, ST=NY, L=SYR, O=SYR, OU=SYR, CN=seedlabca.com
        Validity
            Not Before: Apr 27 23:10:49 2018 GMT
            Not After : Apr 27 23:10:49 2019 GMT
        Subject: C=US, ST=NY, O=SYR, OU=SYR, CN=gangula.com/emailAddress=jgangula@syr.edu
        Subject Public Key Info:
            Public Key Algorithm: rsaEncryption
                Public-Key: (1024 bit)
                Modulus:
                    00:df:60:c0:4a:bb:81:e3:06:c3:d4:78:06:2b:ca:
                    ed:7f:86:96:21:6b:db:a7:20:c9:a1:b0:90:d2:1f:
                    d8:e9:91:ac:61:4d:94:a3:34:92:bd:77:b2:5a:9e:
                    72:c8:10:a1:aa:6a:ba:e2:b6:4f:ca:21:a3:08:83:
                    1c:62:97:c9:ed:45:73:9a:78:b2:b2:b6:94:88:3f:
                    b7:dd:64:a0:b9:26:22:3c:cc:e6:b0:d0:12:7a:06:
                    0c:0f:65:39:c1:b1:d7:0f:9a:98:20:4c:c2:ca:8c:
                    b8:27:67:0d:17:03:80:5c:c0:88:2c:c5:39:14:40:
                    42:04:2d:ad:4d:f8:a3:0f:ad
                Exponent: 65537 (0x10001)
        X509v3 extensions:
            X509v3 Basic Constraints: 
                CA:FALSE
            Netscape Comment: 
                OpenSSL Generated Certificate
            X509v3 Subject Key Identifier: 
                CE:BE:25:4F:6B:39:3D:A9:89:3B:78:C7:CD:2B:91:FF:39:48:EE:83
            X509v3 Authority Key Identifier: 
                keyid:14:F3:1C:70:F5:2D:F0:DE:EF:12:B9:96:C3:38:1A:95:E3:07:55:78

    Signature Algorithm: sha256WithRSAEncryption
         37:50:32:32:59:2d:3e:19:68:0f:86:be:17:80:28:92:2a:7c:
         97:01:1b:c1:c8:1f:57:5f:a8:bb:2d:47:9a:6a:a1:65:4a:66:
         f9:1e:d9:53:18:aa:4a:45:3f:23:80:cb:09:19:97:cb:6a:03:
         b6:50:e4:75:57:1e:de:4a:3c:c5:d5:aa:f2:ef:3d:88:98:9f:
         ee:1d:44:a8:51:83:9e:8a:a5:50:41:75:6f:15:e2:3d:01:01:
         8c:8f:37:b5:2e:98:62:86:5d:e8:85:f3:bb:20:5a:11:e9:f3:
         a7:b3:eb:d6:2d:06:d1:05:56:76:0d:a6:49:d8:ee:a9:a6:e3:
         81:68:96:cd:69:c6:1b:ea:f2:7a:9e:34:cc:04:03:82:93:9a:
         55:d0:af:6b:4f:17:d8:e9:06:50:9e:59:0a:6c:fd:30:b9:30:
         77:76:0b:6a:df:0d:2a:5a:f3:2f:13:18:61:08:40:d5:bd:00:
         0e:0f:52:63:c4:86:68:cf:8b:05:ab:0c:1a:b3:2c:82:bb:05:
         d5:0c:ab:9e:0b:12:61:a3:9f:ad:dc:f2:ac:48:2d:62:84:25:
         33:54:7f:39:f7:f3:53:dc:28:74:02:c9:ea:c0:81:0c:7a:e5:
         62:ce:95:b2:7b:2e:96:4a:a7:41:fa:16:34:c4:b5:9c:f7:aa:
         30:27:61:cb
-----BEGIN CERTIFICATE-----
MIIDPDCCAiSgAwIBAgICEAIwDQYJKoZIhvcNAQELBQAwXDELMAkGA1UEBhMCVVMx
CzAJBgNVBAgMAk5ZMQwwCgYDVQQHDANTWVIxDDAKBgNVBAoMA1NZUjEMMAoGA1UE
CwwDU1lSMRYwFAYDVQQDDA1zZWVkbGFiY2EuY29tMB4XDTE4MDQyNzIzMTA0OVoX
DTE5MDQyNzIzMTA0OVowbTELMAkGA1UEBhMCVVMxCzAJBgNVBAgMAk5ZMQwwCgYD
VQQKDANTWVIxDDAKBgNVBAsMA1NZUjEUMBIGA1UEAwwLZ2FuZ3VsYS5jb20xHzAd
BgkqhkiG9w0BCQEWEGpnYW5ndWxhQHN5ci5lZHUwgZ8wDQYJKoZIhvcNAQEBBQAD
gY0AMIGJAoGBAN9gwEq7geMGw9R4BivK7X+GliFr26cgyaGwkNIf2OmRrGFNlKM0
kr13slqecsgQoapquuK2T8ohowiDHGKXye1Fc5p4srK2lIg/t91koLkmIjzM5rDQ
EnoGDA9lOcGx1w+amCBMwsqMuCdnDRcDgFzAiCzFORRAQgQtrU34ow+tAgMBAAGj
ezB5MAkGA1UdEwQCMAAwLAYJYIZIAYb4QgENBB8WHU9wZW5TU0wgR2VuZXJhdGVk
IENlcnRpZmljYXRlMB0GA1UdDgQWBBTOviVPazk9qYk7eMfNK5H/OUjugzAfBgNV
HSMEGDAWgBQU8xxw9S3w3u8SuZbDOBqV4wdVeDANBgkqhkiG9w0BAQsFAAOCAQEA
N1AyMlktPhloD4a+F4Aokip8lwEbwcgfV1+ouy1HmmqhZUpm+R7ZUxiqSkU/I4DL
CRmXy2oDtlDkdVce3ko8xdWq8u89iJif7h1EqFGDnoqlUEF1bxXiPQEBjI83tS6Y
YoZd6IXzuyBaEenzp7Pr1i0G0QVWdg2mSdjuqabjgWiWzWnGG+ryep40zAQDgpOa
VdCva08X2OkGUJ5ZCmz9MLkwd3YLat8NKlrzLxMYYQhA1b0ADg9SY8SGaM+LBasM
GrMsgrsF1QyrngsSYaOfrdzyrEgtYoQlM1R/OffzU9wodALJ6sCBDHrlYs6Vsnsu
lkqnQfoWNMS1nPeqMCdhyw==
-----END CERTIFICATE-----
