Certificate:
    Data:
        Version: 3 (0x2)
        Serial Number: 4097 (0x1001)
    Signature Algorithm: sha256WithRSAEncryption
        Issuer: C=US, ST=NY, L=SYR, O=SYR, OU=SYR, CN=seedlabca.com
        Validity
            Not Before: Mar 16 02:04:07 2018 GMT
            Not After : Mar 16 02:04:07 2019 GMT
        Subject: C=US, ST=NY, O=SYR, OU=SYR, CN=vpnlabserver.com
        Subject Public Key Info:
            Public Key Algorithm: rsaEncryption
                Public-Key: (2048 bit)
                Modulus:
                    00:ec:4d:f6:43:a9:37:86:a4:ac:cd:9b:2f:9a:85:
                    ae:a4:8e:be:70:32:c5:8c:ae:66:bb:85:52:4a:90:
                    ed:b9:02:17:77:d9:c4:11:0c:e5:66:96:50:3d:d7:
                    93:85:c4:fc:2e:ef:56:63:5a:c0:7d:c7:be:19:99:
                    12:35:8d:fb:0b:67:9f:b7:e2:77:27:57:8d:88:e2:
                    4a:51:e1:fa:e5:33:10:75:47:f0:ab:9e:bd:f0:66:
                    31:4b:f8:a9:7b:32:94:15:e2:5e:70:07:ef:90:05:
                    7b:be:6a:82:99:7b:3f:41:be:aa:25:c8:52:b6:4d:
                    38:42:29:55:c5:13:0a:dc:4f:40:e3:2e:c1:0e:7e:
                    2a:69:a5:0e:e6:cc:39:9e:7f:31:36:6a:fb:fd:e1:
                    3a:05:03:07:6d:4c:ac:d5:38:2c:a5:c1:b6:b1:e0:
                    21:25:a9:94:71:c3:62:a1:e8:1e:44:6f:c4:8c:27:
                    a1:fb:13:7e:4a:1c:5f:98:15:fe:f0:61:3d:8a:e4:
                    03:27:df:a3:d9:b3:5f:8b:5c:b7:fa:21:12:c8:b3:
                    7f:98:fb:9a:4c:8a:b2:8b:09:60:71:1e:27:1a:ca:
                    66:e6:de:ed:70:bf:d3:8d:2a:15:1f:78:48:8d:f4:
                    eb:cd:5d:05:b1:7a:8d:e1:ce:ef:3d:9e:1d:9f:4b:
                    ac:63
                Exponent: 65537 (0x10001)
        X509v3 extensions:
            X509v3 Basic Constraints: 
                CA:FALSE
            Netscape Comment: 
                OpenSSL Generated Certificate
            X509v3 Subject Key Identifier: 
                C2:8B:1F:E3:D4:71:9F:F1:FC:3D:24:7D:50:3D:C5:80:B0:18:97:63
            X509v3 Authority Key Identifier: 
                keyid:14:F3:1C:70:F5:2D:F0:DE:EF:12:B9:96:C3:38:1A:95:E3:07:55:78

    Signature Algorithm: sha256WithRSAEncryption
         1b:f3:b0:cb:80:c7:a3:d1:31:10:6b:48:1f:f8:80:e7:3a:f0:
         a7:8d:82:5b:b7:f3:12:52:9b:ab:50:4e:23:78:fa:91:08:e9:
         a5:cb:f4:11:f5:e1:ca:71:6e:45:c6:00:96:16:83:60:94:15:
         7b:63:9f:4d:b3:d3:98:cc:83:20:8b:47:7c:c4:ca:eb:cd:61:
         20:6f:21:a2:e5:64:1f:c8:7e:96:36:22:49:90:5c:0b:4e:cd:
         4c:4e:d1:af:96:b7:eb:77:ca:2e:47:18:66:b0:5e:4d:20:7a:
         9b:99:9e:fa:e2:3e:a0:30:9a:1a:5a:2a:34:17:4f:8a:ab:93:
         5d:d3:2d:24:62:c2:f0:5c:98:4d:9b:ce:6a:d5:0b:52:41:d3:
         6a:f9:27:ff:26:62:07:b2:34:f9:66:76:8f:0e:48:4f:59:a2:
         2c:3f:72:b1:37:9d:0c:22:a5:10:2b:96:27:6f:2b:a9:3a:2c:
         f4:a5:fe:4e:35:c6:2b:09:13:0d:3e:80:fa:ec:76:ae:4a:1f:
         d1:48:11:69:b2:b5:a1:cd:e0:a9:eb:43:e0:d7:b6:c6:fb:48:
         3d:f9:f7:37:1f:6b:74:09:04:e6:40:e8:f2:e6:4b:70:06:77:
         cb:11:6b:c7:a5:87:dd:a4:88:bd:ef:fd:02:55:92:3d:99:a0:
         c1:ec:6e:59
-----BEGIN CERTIFICATE-----
MIIDpDCCAoygAwIBAgICEAEwDQYJKoZIhvcNAQELBQAwXDELMAkGA1UEBhMCVVMx
CzAJBgNVBAgMAk5ZMQwwCgYDVQQHDANTWVIxDDAKBgNVBAoMA1NZUjEMMAoGA1UE
CwwDU1lSMRYwFAYDVQQDDA1zZWVkbGFiY2EuY29tMB4XDTE4MDMxNjAyMDQwN1oX
DTE5MDMxNjAyMDQwN1owUTELMAkGA1UEBhMCVVMxCzAJBgNVBAgMAk5ZMQwwCgYD
VQQKDANTWVIxDDAKBgNVBAsMA1NZUjEZMBcGA1UEAwwQdnBubGFic2VydmVyLmNv
bTCCASIwDQYJKoZIhvcNAQEBBQADggEPADCCAQoCggEBAOxN9kOpN4akrM2bL5qF
rqSOvnAyxYyuZruFUkqQ7bkCF3fZxBEM5WaWUD3Xk4XE/C7vVmNawH3HvhmZEjWN
+wtnn7fidydXjYjiSlHh+uUzEHVH8KuevfBmMUv4qXsylBXiXnAH75AFe75qgpl7
P0G+qiXIUrZNOEIpVcUTCtxPQOMuwQ5+KmmlDubMOZ5/MTZq+/3hOgUDB21MrNU4
LKXBtrHgISWplHHDYqHoHkRvxIwnofsTfkocX5gV/vBhPYrkAyffo9mzX4tct/oh
Esizf5j7mkyKsosJYHEeJxrKZube7XC/040qFR94SI30681dBbF6jeHO7z2eHZ9L
rGMCAwEAAaN7MHkwCQYDVR0TBAIwADAsBglghkgBhvhCAQ0EHxYdT3BlblNTTCBH
ZW5lcmF0ZWQgQ2VydGlmaWNhdGUwHQYDVR0OBBYEFMKLH+PUcZ/x/D0kfVA9xYCw
GJdjMB8GA1UdIwQYMBaAFBTzHHD1LfDe7xK5lsM4GpXjB1V4MA0GCSqGSIb3DQEB
CwUAA4IBAQAb87DLgMej0TEQa0gf+IDnOvCnjYJbt/MSUpurUE4jePqRCOmly/QR
9eHKcW5FxgCWFoNglBV7Y59Ns9OYzIMgi0d8xMrrzWEgbyGi5WQfyH6WNiJJkFwL
Ts1MTtGvlrfrd8ouRxhmsF5NIHqbmZ764j6gMJoaWio0F0+Kq5Nd0y0kYsLwXJhN
m85q1QtSQdNq+Sf/JmIHsjT5ZnaPDkhPWaIsP3KxN50MIqUQK5YnbyupOiz0pf5O
NcYrCRMNPoD67HauSh/RSBFpsrWhzeCp60Pg17bG+0g9+fc3H2t0CQTmQOjy5ktw
BnfLEWvHpYfdpIi97/0CVZI9maDB7G5Z
-----END CERTIFICATE-----
